; Function Attrs: nounwind uwtable
define noundef i32 @Wlc_PrsWriteErrorMessage(ptr noundef captures(none) %0, ptr noundef %1, ptr noundef %2, ...) local_unnamed_addr #0 {
  %4 = alloca [1 x %struct.__va_list_tag], align 16
  call void @llvm.va_start.p0(ptr nonnull %4)
  %5 = call ptr @vnsprintf(ptr noundef %2, ptr noundef nonnull %4) #24
  call void @llvm.va_end.p0(ptr nonnull %4)
  %6 = icmp eq ptr %1, null
  br i1 %6, label %7, label %12

7:                                                ; preds = %3
  %8 = getelementptr inbounds nuw i8, ptr %0, i64 132
  %9 = getelementptr inbounds nuw i8, ptr %0, i64 8
  %10 = load ptr, ptr %9, align 8
  %11 = call i32 (ptr, ptr, ...) @sprintf(ptr noundef nonnull dereferenceable(1) %8, ptr noundef nonnull dereferenceable(1) @.str, ptr noundef %10, ptr noundef %5) #24
  br label %36

12:                                               ; preds = %3
  %13 = getelementptr inbounds nuw i8, ptr %0, i64 24
  %14 = load ptr, ptr %13, align 8
  %15 = getelementptr i8, ptr %14, i64 4
  %.val.i = load i32, ptr %15, align 4
  %16 = icmp sgt i32 %.val.i, 0
  br i1 %16, label %.lr.ph.i, label %Wlc_PrsFindLine.exit

.lr.ph.i:                                         ; preds = %12
  %17 = getelementptr i8, ptr %14, i64 8
  %.val10.i = load ptr, ptr %17, align 8
  %18 = getelementptr inbounds nuw i8, ptr %0, i64 16
  %19 = load ptr, ptr %18, align 8
  %20 = ptrtoint ptr %1 to i64
  %21 = ptrtoint ptr %19 to i64
  %22 = sub i64 %20, %21
  %wide.trip.count.i = zext nneg i32 %.val.i to i64
  br label %23

23:                                               ; preds = %31, %.lr.ph.i
  %indvars.iv.i = phi i64 [ 0, %.lr.ph.i ], [ %indvars.iv.next.i, %31 ]
  %24 = getelementptr inbounds nuw i32, ptr %.val10.i, i64 %indvars.iv.i
  %25 = load i32, ptr %24, align 4
  %26 = sext i32 %25 to i64
  %27 = icmp slt i64 %22, %26
  br i1 %27, label %28, label %31

28:                                               ; preds = %23
  %29 = trunc nuw nsw i64 %indvars.iv.i to i32
  %30 = add nuw nsw i32 %29, 1
  br label %Wlc_PrsFindLine.exit

31:                                               ; preds = %23
  %indvars.iv.next.i = add nuw nsw i64 %indvars.iv.i, 1
  %exitcond.not.i = icmp eq i64 %indvars.iv.next.i, %wide.trip.count.i
  br i1 %exitcond.not.i, label %Wlc_PrsFindLine.exit, label %23, !llvm.loop !4

Wlc_PrsFindLine.exit:                             ; preds = %31, %12, %28
  %.09.i = phi i32 [ %30, %28 ], [ -1, %12 ], [ -1, %31 ]
  %32 = getelementptr inbounds nuw i8, ptr %0, i64 132
  %33 = getelementptr inbounds nuw i8, ptr %0, i64 8
  %34 = load ptr, ptr %33, align 8
  %35 = call i32 (ptr, ptr, ...) @sprintf(ptr noundef nonnull dereferenceable(1) %32, ptr noundef nonnull dereferenceable(1) @.str.1, ptr noundef %34, i32 noundef %.09.i, ptr noundef %5) #24
  br label %36

36:                                               ; preds = %Wlc_PrsFindLine.exit, %7
  %.not = icmp eq ptr %5, null
  br i1 %.not, label %38, label %37

37:                                               ; preds = %36
  call void @free(ptr noundef nonnull %5) #24
  br label %38

38:                                               ; preds = %36, %37
  ret i32 0
}